target datalayout = "e-m:e-p270:32:32-p271:32:32-p272:64:64-i64:64-i128:128-f80:128-n8:16:32:64-S128"
target triple = "x86_64-pc-linux-gnu"

%class.CmdExtract = type { %class.Array, ptr, i8, %class.RarTime, ptr, %class.ComprDataIO, ptr, i64, i64, i64, i8, i8, i8, i8, i8, [2048 x i32], i8, i8, [2048 x i32], i8, i8, %"class.std::__cxx11::basic_string" }
%class.Array = type { ptr, i64, i64, i64 }
%class.RarTime = type { i64 }
%class.ComprDataIO = type <{ i8, [7 x i8], i64, ptr, i8, [7 x i8], i64, ptr, i64, ptr, i64, i64, i8, i8, i8, i8, [4 x i8], ptr, ptr, ptr, ptr, ptr, ptr, ptr, i32, i32, i8, i8, i8, [5 x i8], i64, i64, i64, i64, i64, i64, i64, %class.DataHash, %class.DataHash, %class.DataHash, i8, i8, [6 x i8] }>
%class.DataHash = type { i32, i32, ptr }
%"class.std::__cxx11::basic_string" = type { %"struct.std::__cxx11::basic_string<wchar_t>::_Alloc_hider", i64, %union.anon }
%"struct.std::__cxx11::basic_string<wchar_t>::_Alloc_hider" = type { ptr }
%union.anon = type { i64, [8 x i8] }
%"struct.CmdExtract::ExtractRef" = type { ptr, ptr, i64 }

; Function Attrs: mustprogress nounwind uwtable
define linkonce_odr void @_ZN5ArrayIN10CmdExtract10ExtractRefEE5ResetEv(ptr noundef nonnull align 8 dereferenceable(32) %0) #6 comdat align 2 {
  %2 = alloca ptr, align 8
  store ptr %0, ptr %2, align 8
  %3 = load ptr, ptr %2, align 8
  %4 = getelementptr inbounds %class.Array, ptr %3, i32 0, i32 0
  %5 = load ptr, ptr %4, align 8
  %6 = icmp ne ptr %5, null
  br i1 %6, label %7, label %11

7:                                                ; preds = %1
  %8 = getelementptr inbounds %class.Array, ptr %3, i32 0, i32 0
  %9 = load ptr, ptr %8, align 8
  call void @free(ptr noundef %9) #12
  %10 = getelementptr inbounds %class.Array, ptr %3, i32 0, i32 0
  store ptr null, ptr %10, align 8
  br label %11

11:                                               ; preds = %7, %1
  %12 = getelementptr inbounds %class.Array, ptr %3, i32 0, i32 1
  store i64 0, ptr %12, align 8
  %13 = getelementptr inbounds %class.Array, ptr %3, i32 0, i32 2
  store i64 0, ptr %13, align 8
  ret void
}

; Function Attrs: mustprogress nounwind uwtable
define linkonce_odr noundef nonnull align 8 dereferenceable(24) ptr @_ZNK5ArrayIN10CmdExtract10ExtractRefEEixEm(ptr noundef nonnull align 8 dereferenceable(32) %0, i64 noundef %1) #6 comdat align 2 {
  %3 = alloca ptr, align 8
  %4 = alloca i64, align 8
  store ptr %0, ptr %3, align 8
  store i64 %1, ptr %4, align 8
  %5 = load ptr, ptr %3, align 8
  %6 = getelementptr inbounds %class.Array, ptr %5, i32 0, i32 0
  %7 = load ptr, ptr %6, align 8
  %8 = load i64, ptr %4, align 8
  %9 = getelementptr inbounds %"struct.CmdExtract::ExtractRef", ptr %7, i64 %8
  ret ptr %9
}

; Function Attrs: mustprogress nounwind uwtable
define linkonce_odr noundef i64 @_ZN5ArrayIN10CmdExtract10ExtractRefEE4SizeEv(ptr noundef nonnull align 8 dereferenceable(32) %0) #6 comdat align 2 {
  %2 = alloca ptr, align 8
  store ptr %0, ptr %2, align 8
  %3 = load ptr, ptr %2, align 8
  %4 = getelementptr inbounds %class.Array, ptr %3, i32 0, i32 1
  %5 = load i64, ptr %4, align 8
  ret i64 %5
}

; Function Attrs: mustprogress uwtable
define void @_ZN10CmdExtract15FreeAnalyzeDataEv(ptr noundef nonnull align 8 dereferenceable(16800) %0) #0 align 2 {
  %2 = alloca ptr, align 8
  %3 = alloca i64, align 8
  store ptr %0, ptr %2, align 8
  %4 = load ptr, ptr %2, align 8
  store i64 0, ptr %3, align 8
  br label %5

5:                                                ; preds = %35, %1
  %6 = load i64, ptr %3, align 8
  %7 = getelementptr inbounds %class.CmdExtract, ptr %4, i32 0, i32 0
  %8 = call noundef i64 @_ZN5ArrayIN10CmdExtract10ExtractRefEE4SizeEv(ptr noundef nonnull align 8 dereferenceable(32) %7)
  %9 = icmp ult i64 %6, %8
  br i1 %9, label %10, label %38

10:                                               ; preds = %5
  %11 = getelementptr inbounds %class.CmdExtract, ptr %4, i32 0, i32 0
  %12 = load i64, ptr %3, align 8
  %13 = call noundef nonnull align 8 dereferenceable(24) ptr @_ZNK5ArrayIN10CmdExtract10ExtractRefEEixEm(ptr noundef nonnull align 8 dereferenceable(32) %11, i64 noundef %12)
  %14 = getelementptr inbounds %"struct.CmdExtract::ExtractRef", ptr %13, i32 0, i32 1
  %15 = load ptr, ptr %14, align 8
  %16 = icmp ne ptr %15, null
  br i1 %16, label %17, label %24

17:                                               ; preds = %10
  %18 = getelementptr inbounds %class.CmdExtract, ptr %4, i32 0, i32 0
  %19 = load i64, ptr %3, align 8
  %20 = call noundef nonnull align 8 dereferenceable(24) ptr @_ZNK5ArrayIN10CmdExtract10ExtractRefEEixEm(ptr noundef nonnull align 8 dereferenceable(32) %18, i64 noundef %19)
  %21 = getelementptr inbounds %"struct.CmdExtract::ExtractRef", ptr %20, i32 0, i32 1
  %22 = load ptr, ptr %21, align 8
  %23 = call noundef zeroext i1 @_Z7DelFilePKw(ptr noundef %22)
  br label %24

24:                                               ; preds = %17, %10
  %25 = getelementptr inbounds %class.CmdExtract, ptr %4, i32 0, i32 0
  %26 = load i64, ptr %3, align 8
  %27 = call noundef nonnull align 8 dereferenceable(24) ptr @_ZNK5ArrayIN10CmdExtract10ExtractRefEEixEm(ptr noundef nonnull align 8 dereferenceable(32) %25, i64 noundef %26)
  %28 = getelementptr inbounds %"struct.CmdExtract::ExtractRef", ptr %27, i32 0, i32 0
  %29 = load ptr, ptr %28, align 8
  call void @free(ptr noundef %29) #12
  %30 = getelementptr inbounds %class.CmdExtract, ptr %4, i32 0, i32 0
  %31 = load i64, ptr %3, align 8
  %32 = call noundef nonnull align 8 dereferenceable(24) ptr @_ZNK5ArrayIN10CmdExtract10ExtractRefEEixEm(ptr noundef nonnull align 8 dereferenceable(32) %30, i64 noundef %31)
  %33 = getelementptr inbounds %"struct.CmdExtract::ExtractRef", ptr %32, i32 0, i32 1
  %34 = load ptr, ptr %33, align 8
  call void @free(ptr noundef %34) #12
  br label %35

35:                                               ; preds = %24
  %36 = load i64, ptr %3, align 8
  %37 = add i64 %36, 1
  store i64 %37, ptr %3, align 8
  br label %5, !llvm.loop !4

38:                                               ; preds = %5
  %39 = getelementptr inbounds %class.CmdExtract, ptr %4, i32 0, i32 0
  call void @_ZN5ArrayIN10CmdExtract10ExtractRefEE5ResetEv(ptr noundef nonnull align 8 dereferenceable(32) %39)
  %40 = getelementptr inbounds %class.CmdExtract, ptr %4, i32 0, i32 1
  %41 = load ptr, ptr %40, align 8
  call void @llvm.memset.p0.i64(ptr align 8 %41, i8 0, i64 16400, i1 false)
  ret void
}