; Function Attrs: mustprogress uwtable
define void @_ZN10CmdExtract15FreeAnalyzeDataEv(ptr nocapture noundef nonnull align 8 dereferenceable(16800) %0) local_unnamed_addr #0 align 2 {
  %2 = getelementptr inbounds i8, ptr %0, i64 8
  %3 = load i64, ptr %2, align 8
  %.not7 = icmp eq i64 %3, 0
  br i1 %.not7, label %._crit_edge, label %.lr.ph

.lr.ph:                                           ; preds = %1, %9
  %.06 = phi i64 [ %16, %9 ], [ 0, %1 ]
  %4 = load ptr, ptr %0, align 8
  %5 = getelementptr inbounds %"struct.CmdExtract::ExtractRef", ptr %4, i64 %.06, i32 1
  %6 = load ptr, ptr %5, align 8
  %.not = icmp eq ptr %6, null
  br i1 %.not, label %9, label %7

7:                                                ; preds = %.lr.ph
  %8 = tail call noundef zeroext i1 @_Z7DelFilePKw(ptr noundef nonnull %6)
  %.pre = load ptr, ptr %0, align 8
  br label %9

9:                                                ; preds = %7, %.lr.ph
  %10 = phi ptr [ %.pre, %7 ], [ %4, %.lr.ph ]
  %11 = getelementptr inbounds %"struct.CmdExtract::ExtractRef", ptr %10, i64 %.06
  %12 = load ptr, ptr %11, align 8
  tail call void @free(ptr noundef %12) #18
  %13 = load ptr, ptr %0, align 8
  %14 = getelementptr inbounds %"struct.CmdExtract::ExtractRef", ptr %13, i64 %.06, i32 1
  %15 = load ptr, ptr %14, align 8
  tail call void @free(ptr noundef %15) #18
  %16 = add nuw i64 %.06, 1
  %17 = load i64, ptr %2, align 8
  %18 = icmp ult i64 %16, %17
  br i1 %18, label %.lr.ph, label %._crit_edge, !llvm.loop !4

._crit_edge:                                      ; preds = %9, %1
  %19 = load ptr, ptr %0, align 8
  %.not.i = icmp eq ptr %19, null
  br i1 %.not.i, label %_ZN5ArrayIN10CmdExtract10ExtractRefEE5ResetEv.exit, label %20

20:                                               ; preds = %._crit_edge
  tail call void @free(ptr noundef nonnull %19) #18
  store ptr null, ptr %0, align 8
  br label %_ZN5ArrayIN10CmdExtract10ExtractRefEE5ResetEv.exit

_ZN5ArrayIN10CmdExtract10ExtractRefEE5ResetEv.exit: ; preds = %._crit_edge, %20
  tail call void @llvm.memset.p0.i64(ptr noundef nonnull align 8 dereferenceable(16) %2, i8 0, i64 16, i1 false)
  %21 = getelementptr inbounds i8, ptr %0, i64 32
  %22 = load ptr, ptr %21, align 8
  tail call void @llvm.memset.p0.i64(ptr noundef nonnull align 8 dereferenceable(16400) %22, i8 0, i64 16400, i1 false)
  ret void
}